; ModuleID = '31/1864.c'
source_filename = "31/1864.c"
target datalayout = "e-m:e-p270:32:32-p271:32:32-p272:64:64-i64:64-f80:128-n8:16:32:64-S128"
target triple = "x86_64-pc-linux-gnu"

%struct.student = type { [10 x i8], [50 x i8], [50 x i8], [10 x i8], i8, i32, %struct.student* }

@.str = private unnamed_addr constant [18 x i8] c"%s %s %c %d %s %s\00", align 1
@.str.1 = private unnamed_addr constant [19 x i8] c"%s %s %c %d %s %s\0A\00", align 1

; Function Attrs: noinline nounwind uwtable
define dso_local void @main() #0 {
  %1 = alloca %struct.student*, align 8
  %2 = alloca %struct.student*, align 8
  store %struct.student* null, %struct.student** %1, align 8
  %3 = call noalias i8* @malloc(i64 100) #3
  %4 = bitcast i8* %3 to %struct.student*
  store %struct.student* %4, %struct.student** %2, align 8
  br label %5

5:                                                ; preds = %32, %0
  %6 = load %struct.student*, %struct.student** %2, align 8
  %7 = getelementptr inbounds %struct.student, %struct.student* %6, i32 0, i32 0
  %8 = getelementptr inbounds [10 x i8], [10 x i8]* %7, i64 0, i64 0
  %9 = load %struct.student*, %struct.student** %2, align 8
  %10 = getelementptr inbounds %struct.student, %struct.student* %9, i32 0, i32 1
  %11 = getelementptr inbounds [50 x i8], [50 x i8]* %10, i64 0, i64 0
  %12 = load %struct.student*, %struct.student** %2, align 8
  %13 = getelementptr inbounds %struct.student, %struct.student* %12, i32 0, i32 4
  %14 = load %struct.student*, %struct.student** %2, align 8
  %15 = getelementptr inbounds %struct.student, %struct.student* %14, i32 0, i32 5
  %16 = load %struct.student*, %struct.student** %2, align 8
  %17 = getelementptr inbounds %struct.student, %struct.student* %16, i32 0, i32 3
  %18 = getelementptr inbounds [10 x i8], [10 x i8]* %17, i64 0, i64 0
  %19 = load %struct.student*, %struct.student** %2, align 8
  %20 = getelementptr inbounds %struct.student, %struct.student* %19, i32 0, i32 2
  %21 = getelementptr inbounds [50 x i8], [50 x i8]* %20, i64 0, i64 0
  %22 = call i32 (i8*, ...) @__isoc99_scanf(i8* getelementptr inbounds ([18 x i8], [18 x i8]* @.str, i64 0, i64 0), i8* %8, i8* %11, i8* %13, i32* %15, i8* %18, i8* %21)
  %23 = icmp ne i32 %22, -1
  br i1 %23, label %24, label %39

24:                                               ; preds = %5
  %25 = load %struct.student*, %struct.student** %2, align 8
  %26 = getelementptr inbounds %struct.student, %struct.student* %25, i32 0, i32 0
  %27 = getelementptr inbounds [10 x i8], [10 x i8]* %26, i64 0, i64 0
  %28 = load i8, i8* %27, align 8
  %29 = sext i8 %28 to i32
  %30 = icmp eq i32 %29, 101
  br i1 %30, label %31, label %32

31:                                               ; preds = %24
  br label %39

32:                                               ; preds = %24
  %33 = load %struct.student*, %struct.student** %1, align 8
  %34 = load %struct.student*, %struct.student** %2, align 8
  %35 = getelementptr inbounds %struct.student, %struct.student* %34, i32 0, i32 6
  store %struct.student* %33, %struct.student** %35, align 8
  %36 = load %struct.student*, %struct.student** %2, align 8
  store %struct.student* %36, %struct.student** %1, align 8
  %37 = call noalias i8* @malloc(i64 100) #3
  %38 = bitcast i8* %37 to %struct.student*
  store %struct.student* %38, %struct.student** %2, align 8
  br label %5

39:                                               ; preds = %31, %5
  %40 = load %struct.student*, %struct.student** %1, align 8
  store %struct.student* %40, %struct.student** %2, align 8
  br label %41

41:                                               ; preds = %44, %39
  %42 = load %struct.student*, %struct.student** %2, align 8
  %43 = icmp ne %struct.student* %42, null
  br i1 %43, label %44, label %68

44:                                               ; preds = %41
  %45 = load %struct.student*, %struct.student** %2, align 8
  %46 = getelementptr inbounds %struct.student, %struct.student* %45, i32 0, i32 0
  %47 = getelementptr inbounds [10 x i8], [10 x i8]* %46, i64 0, i64 0
  %48 = load %struct.student*, %struct.student** %2, align 8
  %49 = getelementptr inbounds %struct.student, %struct.student* %48, i32 0, i32 1
  %50 = getelementptr inbounds [50 x i8], [50 x i8]* %49, i64 0, i64 0
  %51 = load %struct.student*, %struct.student** %2, align 8
  %52 = getelementptr inbounds %struct.student, %struct.student* %51, i32 0, i32 4
  %53 = load i8, i8* %52, align 8
  %54 = sext i8 %53 to i32
  %55 = load %struct.student*, %struct.student** %2, align 8
  %56 = getelementptr inbounds %struct.student, %struct.student* %55, i32 0, i32 5
  %57 = load i32, i32* %56, align 4
  %58 = load %struct.student*, %struct.student** %2, align 8
  %59 = getelementptr inbounds %struct.student, %struct.student* %58, i32 0, i32 3
  %60 = getelementptr inbounds [10 x i8], [10 x i8]* %59, i64 0, i64 0
  %61 = load %struct.student*, %struct.student** %2, align 8
  %62 = getelementptr inbounds %struct.student, %struct.student* %61, i32 0, i32 2
  %63 = getelementptr inbounds [50 x i8], [50 x i8]* %62, i64 0, i64 0
  %64 = call i32 (i8*, ...) @printf(i8* getelementptr inbounds ([19 x i8], [19 x i8]* @.str.1, i64 0, i64 0), i8* %47, i8* %50, i32 %54, i32 %57, i8* %60, i8* %63)
  %65 = load %struct.student*, %struct.student** %2, align 8
  %66 = getelementptr inbounds %struct.student, %struct.student* %65, i32 0, i32 6
  %67 = load %struct.student*, %struct.student** %66, align 8
  store %struct.student* %67, %struct.student** %2, align 8
  br label %41

68:                                               ; preds = %41
  %69 = call i32 @getchar()
  %70 = call i32 @getchar()
  ret void
}

; Function Attrs: nounwind
declare dso_local noalias i8* @malloc(i64) #1

declare dso_local i32 @__isoc99_scanf(i8*, ...) #2

declare dso_local i32 @printf(i8*, ...) #2

declare dso_local i32 @getchar() #2


!llvm.module.flags = !{!0}
!llvm.ident = !{!1}

!0 = !{i32 1, !"wchar_size", i32 4}
!1 = !{!"clang version 10.0.0-4ubuntu1 "}
